; Function Attrs: nounwind uwtable
define dso_local i64 @tidout(ptr noundef readonly captures(none) %0) local_unnamed_addr #0 {
  %2 = alloca [32 x i8], align 16
  %3 = getelementptr inbounds nuw i8, ptr %0, i64 32
  %4 = load i64, ptr %3, align 8
  %5 = inttoptr i64 %4 to ptr
  call void @llvm.lifetime.start.p0(i64 32, ptr nonnull %2) #11
  %.val = load i16, ptr %5, align 2
  %6 = getelementptr i8, ptr %5, i64 2
  %.val4 = load i16, ptr %6, align 2
  %7 = zext i16 %.val to i32
  %8 = shl nuw i32 %7, 16
  %9 = zext i16 %.val4 to i32
  %10 = or disjoint i32 %8, %9
  %11 = getelementptr i8, ptr %5, i64 4
  %.val5 = load i16, ptr %11, align 2
  %12 = zext i16 %.val5 to i32
  %13 = call i32 (ptr, i64, ptr, ...) @pg_snprintf(ptr noundef nonnull %2, i64 noundef 32, ptr noundef nonnull @.str.3, i32 noundef %10, i32 noundef %12) #11
  %14 = call ptr @pstrdup(ptr noundef nonnull %2) #11
  %15 = ptrtoint ptr %14 to i64
  call void @llvm.lifetime.end.p0(i64 32, ptr nonnull %2) #11
  ret i64 %15
}